target datalayout = "e-m:e-p270:32:32-p271:32:32-p272:64:64-i64:64-i128:128-f80:128-n8:16:32:64-S128"
target triple = "x86_64-pc-linux-gnu"

; Function Attrs: mustprogress uwtable
define i32 @u_strCompare_77(ptr noundef %0, i32 noundef %1, ptr noundef %2, i32 noundef %3, i8 noundef signext %4) #0 {
  %6 = alloca i32, align 4
  %7 = alloca ptr, align 8
  %8 = alloca i32, align 4
  %9 = alloca ptr, align 8
  %10 = alloca i32, align 4
  %11 = alloca i8, align 1
  store ptr %0, ptr %7, align 8, !tbaa !3
  store i32 %1, ptr %8, align 4, !tbaa !8
  store ptr %2, ptr %9, align 8, !tbaa !3
  store i32 %3, ptr %10, align 4, !tbaa !8
  store i8 %4, ptr %11, align 1, !tbaa !30
  %12 = load ptr, ptr %7, align 8, !tbaa !3
  %13 = icmp eq ptr %12, null
  br i1 %13, label %23, label %14

14:                                               ; preds = %5
  %15 = load i32, ptr %8, align 4, !tbaa !8
  %16 = icmp slt i32 %15, -1
  br i1 %16, label %23, label %17

17:                                               ; preds = %14
  %18 = load ptr, ptr %9, align 8, !tbaa !3
  %19 = icmp eq ptr %18, null
  br i1 %19, label %23, label %20

20:                                               ; preds = %17
  %21 = load i32, ptr %10, align 4, !tbaa !8
  %22 = icmp slt i32 %21, -1
  br i1 %22, label %23, label %24

23:                                               ; preds = %20, %17, %14, %5
  store i32 0, ptr %6, align 4
  br label %31

24:                                               ; preds = %20
  %25 = load ptr, ptr %7, align 8, !tbaa !3
  %26 = load i32, ptr %8, align 4, !tbaa !8
  %27 = load ptr, ptr %9, align 8, !tbaa !3
  %28 = load i32, ptr %10, align 4, !tbaa !8
  %29 = load i8, ptr %11, align 1, !tbaa !30
  %30 = call i32 @uprv_strCompare_77(ptr noundef %25, i32 noundef %26, ptr noundef %27, i32 noundef %28, i8 noundef signext 0, i8 noundef signext %29)
  store i32 %30, ptr %6, align 4
  br label %31

31:                                               ; preds = %24, %23
  %32 = load i32, ptr %6, align 4
  ret i32 %32
}