; Function Attrs: mustprogress nofree norecurse nosync nounwind willreturn memory(argmem: read) uwtable
define range(i32 -65535, 65536) i32 @u_strCompare_77(ptr noundef readonly %0, i32 noundef %1, ptr noundef readonly %2, i32 noundef %3, i8 noundef signext %4) local_unnamed_addr #2 {
  %6 = icmp eq ptr %0, null
  %7 = icmp slt i32 %1, -1
  %or.cond = or i1 %6, %7
  %8 = icmp eq ptr %2, null
  %or.cond3 = or i1 %or.cond, %8
  %9 = icmp slt i32 %3, -1
  %or.cond5 = or i1 %or.cond3, %9
  br i1 %or.cond5, label %12, label %10

10:                                               ; preds = %5
  %11 = tail call i32 @uprv_strCompare_77(ptr noundef nonnull %0, i32 noundef %1, ptr noundef nonnull %2, i32 noundef %3, i8 noundef signext 0, i8 noundef signext %4)
  br label %12

12:                                               ; preds = %5, %10
  %.0 = phi i32 [ %11, %10 ], [ 0, %5 ]
  ret i32 %.0
}